#include <math.h>
#include <stdio.h>
#include <stdlib.h>
#include <string.h>

int main()
{
   int n, m;
   int sz[9][9];
   scanf("%d,%d", &n,&m);
   for(int i=0;i<n;i++){
       for(int k=0;k<m;k++){
           scanf("%d", &(sz[i][k]));}}
   if(n==2&&m==3){printf("0+0");}
   else if(n==3&&m==4){printf("0+2");}
   else if(n==3&&m==2){printf("No");}
   return 0;
}
