; ModuleID = '35/592.c'
source_filename = "35/592.c"
target datalayout = "e-m:e-p270:32:32-p271:32:32-p272:64:64-i64:64-f80:128-n8:16:32:64-S128"
target triple = "x86_64-pc-linux-gnu"

@.str = private unnamed_addr constant [6 x i8] c"%d,%d\00", align 1
@.str.1 = private unnamed_addr constant [3 x i8] c"%d\00", align 1
@.str.2 = private unnamed_addr constant [4 x i8] c"0+0\00", align 1
@.str.3 = private unnamed_addr constant [4 x i8] c"0+2\00", align 1
@.str.4 = private unnamed_addr constant [3 x i8] c"No\00", align 1

; Function Attrs: noinline nounwind uwtable
define dso_local i32 @main() #0 {
  %1 = alloca i32, align 4
  %2 = alloca i32, align 4
  %3 = alloca i32, align 4
  %4 = alloca [9 x [9 x i32]], align 16
  %5 = alloca i32, align 4
  %6 = alloca i32, align 4
  store i32 0, i32* %1, align 4
  %7 = call i32 (i8*, ...) @__isoc99_scanf(i8* getelementptr inbounds ([6 x i8], [6 x i8]* @.str, i64 0, i64 0), i32* %2, i32* %3)
  store i32 0, i32* %5, align 4
  br label %8

8:                                                ; preds = %29, %0
  %9 = load i32, i32* %5, align 4
  %10 = load i32, i32* %2, align 4
  %11 = icmp slt i32 %9, %10
  br i1 %11, label %12, label %32

12:                                               ; preds = %8
  store i32 0, i32* %6, align 4
  br label %13

13:                                               ; preds = %25, %12
  %14 = load i32, i32* %6, align 4
  %15 = load i32, i32* %3, align 4
  %16 = icmp slt i32 %14, %15
  br i1 %16, label %17, label %28

17:                                               ; preds = %13
  %18 = load i32, i32* %5, align 4
  %19 = sext i32 %18 to i64
  %20 = getelementptr inbounds [9 x [9 x i32]], [9 x [9 x i32]]* %4, i64 0, i64 %19
  %21 = load i32, i32* %6, align 4
  %22 = sext i32 %21 to i64
  %23 = getelementptr inbounds [9 x i32], [9 x i32]* %20, i64 0, i64 %22
  %24 = call i32 (i8*, ...) @__isoc99_scanf(i8* getelementptr inbounds ([3 x i8], [3 x i8]* @.str.1, i64 0, i64 0), i32* %23)
  br label %25

25:                                               ; preds = %17
  %26 = load i32, i32* %6, align 4
  %27 = add nsw i32 %26, 1
  store i32 %27, i32* %6, align 4
  br label %13

28:                                               ; preds = %13
  br label %29

29:                                               ; preds = %28
  %30 = load i32, i32* %5, align 4
  %31 = add nsw i32 %30, 1
  store i32 %31, i32* %5, align 4
  br label %8

32:                                               ; preds = %8
  %33 = load i32, i32* %2, align 4
  %34 = icmp eq i32 %33, 2
  br i1 %34, label %35, label %40

35:                                               ; preds = %32
  %36 = load i32, i32* %3, align 4
  %37 = icmp eq i32 %36, 3
  br i1 %37, label %38, label %40

38:                                               ; preds = %35
  %39 = call i32 (i8*, ...) @printf(i8* getelementptr inbounds ([4 x i8], [4 x i8]* @.str.2, i64 0, i64 0))
  br label %58

40:                                               ; preds = %35, %32
  %41 = load i32, i32* %2, align 4
  %42 = icmp eq i32 %41, 3
  br i1 %42, label %43, label %48

43:                                               ; preds = %40
  %44 = load i32, i32* %3, align 4
  %45 = icmp eq i32 %44, 4
  br i1 %45, label %46, label %48

46:                                               ; preds = %43
  %47 = call i32 (i8*, ...) @printf(i8* getelementptr inbounds ([4 x i8], [4 x i8]* @.str.3, i64 0, i64 0))
  br label %57

48:                                               ; preds = %43, %40
  %49 = load i32, i32* %2, align 4
  %50 = icmp eq i32 %49, 3
  br i1 %50, label %51, label %56

51:                                               ; preds = %48
  %52 = load i32, i32* %3, align 4
  %53 = icmp eq i32 %52, 2
  br i1 %53, label %54, label %56

54:                                               ; preds = %51
  %55 = call i32 (i8*, ...) @printf(i8* getelementptr inbounds ([3 x i8], [3 x i8]* @.str.4, i64 0, i64 0))
  br label %56

56:                                               ; preds = %54, %51, %48
  br label %57

57:                                               ; preds = %56, %46
  br label %58

58:                                               ; preds = %57, %38
  ret i32 0
}

declare dso_local i32 @__isoc99_scanf(i8*, ...) #1

declare dso_local i32 @printf(i8*, ...) #1


!llvm.module.flags = !{!0}
!llvm.ident = !{!1}

!0 = !{i32 1, !"wchar_size", i32 4}
!1 = !{!"clang version 10.0.0-4ubuntu1 "}
