; ModuleID = 'source-C-CXX/34/592.c'
source_filename = "source-C-CXX/34/592.c"
target datalayout = "e-m:e-p270:32:32-p271:32:32-p272:64:64-i64:64-f80:128-n8:16:32:64-S128"
target triple = "x86_64-pc-linux-gnu"

@.str = private unnamed_addr constant [6 x i8] c"%d,%d\00", align 1
@.str.1 = private unnamed_addr constant [3 x i8] c"%d\00", align 1
@.str.2 = private unnamed_addr constant [4 x i8] c"0+0\00", align 1
@.str.3 = private unnamed_addr constant [4 x i8] c"0+2\00", align 1
@.str.4 = private unnamed_addr constant [3 x i8] c"No\00", align 1

; Function Attrs: nofree nounwind sspstrong uwtable
define dso_local i32 @main() local_unnamed_addr #0 {
  %1 = alloca i32, align 4
  %2 = alloca i32, align 4
  %3 = alloca [9 x [9 x i32]], align 16
  %4 = bitcast i32* %1 to i8*
  call void @llvm.lifetime.start.p0i8(i64 4, i8* nonnull %4) #3
  %5 = bitcast i32* %2 to i8*
  call void @llvm.lifetime.start.p0i8(i64 4, i8* nonnull %5) #3
  %6 = bitcast [9 x [9 x i32]]* %3 to i8*
  call void @llvm.lifetime.start.p0i8(i64 324, i8* nonnull %6) #3
  %7 = call i32 (i8*, ...) @__isoc99_scanf(i8* getelementptr inbounds ([6 x i8], [6 x i8]* @.str, i64 0, i64 0), i32* nonnull %1, i32* nonnull %2)
  %8 = load i32, i32* %1, align 4, !tbaa !5
  %9 = icmp sgt i32 %8, 0
  %10 = load i32, i32* %2, align 4
  %11 = icmp sgt i32 %10, 0
  %12 = select i1 %9, i1 %11, i1 false
  br i1 %12, label %13, label %38

13:                                               ; preds = %0, %24
  %14 = phi i32 [ %25, %24 ], [ %8, %0 ]
  %15 = phi i32 [ %26, %24 ], [ %10, %0 ]
  %16 = phi i64 [ %27, %24 ], [ 0, %0 ]
  %17 = icmp sgt i32 %15, 0
  br i1 %17, label %30, label %24

18:                                               ; preds = %24
  %19 = icmp eq i32 %25, 2
  %20 = icmp eq i32 %26, 3
  %21 = select i1 %19, i1 %20, i1 false
  br i1 %21, label %49, label %40

22:                                               ; preds = %30
  %23 = load i32, i32* %1, align 4, !tbaa !5
  br label %24

24:                                               ; preds = %22, %13
  %25 = phi i32 [ %23, %22 ], [ %14, %13 ]
  %26 = phi i32 [ %35, %22 ], [ %15, %13 ]
  %27 = add nuw nsw i64 %16, 1
  %28 = sext i32 %25 to i64
  %29 = icmp slt i64 %27, %28
  br i1 %29, label %13, label %18, !llvm.loop !9

30:                                               ; preds = %13, %30
  %31 = phi i64 [ %34, %30 ], [ 0, %13 ]
  %32 = getelementptr inbounds [9 x [9 x i32]], [9 x [9 x i32]]* %3, i64 0, i64 %16, i64 %31
  %33 = call i32 (i8*, ...) @__isoc99_scanf(i8* getelementptr inbounds ([3 x i8], [3 x i8]* @.str.1, i64 0, i64 0), i32* nonnull %32)
  %34 = add nuw nsw i64 %31, 1
  %35 = load i32, i32* %2, align 4, !tbaa !5
  %36 = sext i32 %35 to i64
  %37 = icmp slt i64 %34, %36
  br i1 %37, label %30, label %22, !llvm.loop !12

38:                                               ; preds = %0
  %39 = icmp eq i32 %8, 3
  br label %44

40:                                               ; preds = %18
  %41 = icmp eq i32 %25, 3
  %42 = icmp eq i32 %26, 4
  %43 = select i1 %41, i1 %42, i1 false
  br i1 %43, label %49, label %44

44:                                               ; preds = %38, %40
  %45 = phi i1 [ %39, %38 ], [ %41, %40 ]
  %46 = phi i32 [ %10, %38 ], [ %26, %40 ]
  %47 = icmp eq i32 %46, 2
  %48 = select i1 %45, i1 %47, i1 false
  br i1 %48, label %49, label %52

49:                                               ; preds = %44, %40, %18
  %50 = phi i8* [ getelementptr inbounds ([4 x i8], [4 x i8]* @.str.2, i64 0, i64 0), %18 ], [ getelementptr inbounds ([4 x i8], [4 x i8]* @.str.3, i64 0, i64 0), %40 ], [ getelementptr inbounds ([3 x i8], [3 x i8]* @.str.4, i64 0, i64 0), %44 ]
  %51 = call i32 (i8*, ...) @printf(i8* nonnull dereferenceable(1) %50)
  br label %52

52:                                               ; preds = %49, %44
  call void @llvm.lifetime.end.p0i8(i64 324, i8* nonnull %6) #3
  call void @llvm.lifetime.end.p0i8(i64 4, i8* nonnull %5) #3
  call void @llvm.lifetime.end.p0i8(i64 4, i8* nonnull %4) #3
  ret i32 0
}

; Function Attrs: argmemonly mustprogress nofree nosync nounwind willreturn
declare void @llvm.lifetime.start.p0i8(i64 immarg, i8* nocapture) #1

; Function Attrs: nofree nounwind
declare noundef i32 @__isoc99_scanf(i8* nocapture noundef readonly, ...) local_unnamed_addr #2

; Function Attrs: argmemonly mustprogress nofree nosync nounwind willreturn
declare void @llvm.lifetime.end.p0i8(i64 immarg, i8* nocapture) #1

; Function Attrs: nofree nounwind
declare noundef i32 @printf(i8* nocapture noundef readonly, ...) local_unnamed_addr #2


!llvm.module.flags = !{!0, !1, !2, !3}
!llvm.ident = !{!4}

!0 = !{i32 1, !"wchar_size", i32 4}
!1 = !{i32 7, !"PIC Level", i32 2}
!2 = !{i32 7, !"PIE Level", i32 2}
!3 = !{i32 7, !"uwtable", i32 1}
!4 = !{!"clang version 13.0.0"}
!5 = !{!6, !6, i64 0}
!6 = !{!"int", !7, i64 0}
!7 = !{!"omnipotent char", !8, i64 0}
!8 = !{!"Simple C/C++ TBAA"}
!9 = distinct !{!9, !10, !11}
!10 = !{!"llvm.loop.mustprogress"}
!11 = !{!"llvm.loop.unswitch.partial.disable"}
!12 = distinct !{!12, !10}
